target datalayout = "e-m:e-p270:32:32-p271:32:32-p272:64:64-i64:64-i128:128-f80:128-n8:16:32:64-S128"
target triple = "x86_64-pc-linux-gnu"

%struct.FunctionCallInfoBaseData = type { ptr, ptr, ptr, i32, i8, i16, [0 x %struct.NullableDatum] }
%struct.NullableDatum = type { i64, i8 }
%struct.dirent = type { i64, i64, i16, i8, [256 x i8] }
%struct.ReturnSetInfo = type { i32, ptr, ptr, i32, i32, i32, ptr, ptr }

@.str.8 = private unnamed_addr constant [2 x i8] c".\00", align 1
@.str.9 = private unnamed_addr constant [3 x i8] c"..\00", align 1

; Function Attrs: inlinehint nounwind uwtable
define internal i64 @PointerGetDatum(ptr noundef %0) #3 {
  %2 = alloca ptr, align 8
  store ptr %0, ptr %2, align 8
  %3 = load ptr, ptr %2, align 8
  %4 = ptrtoint ptr %3 to i64
  ret i64 %4
}

; Function Attrs: inlinehint nounwind uwtable
define internal zeroext i1 @DatumGetBool(i64 noundef %0) #3 {
  %2 = alloca i64, align 8
  store i64 %0, ptr %2, align 8
  %3 = load i64, ptr %2, align 8
  %4 = icmp ne i64 %3, 0
  ret i1 %4
}

; Function Attrs: inlinehint nounwind uwtable
define internal ptr @DatumGetPointer(i64 noundef %0) #3 {
  %2 = alloca i64, align 8
  store i64 %0, ptr %2, align 8
  %3 = load i64, ptr %2, align 8
  %4 = inttoptr i64 %3 to ptr
  ret ptr %4
}

; Function Attrs: nounwind uwtable
define dso_local i64 @pg_ls_dir(ptr noundef %0) #0 {
  %2 = alloca i64, align 8
  %3 = alloca ptr, align 8
  %4 = alloca ptr, align 8
  %5 = alloca ptr, align 8
  %6 = alloca i8, align 1
  %7 = alloca i8, align 1
  %8 = alloca ptr, align 8
  %9 = alloca ptr, align 8
  %10 = alloca i32, align 4
  %11 = alloca [1 x i64], align 8
  %12 = alloca [1 x i8], align 1
  store ptr %0, ptr %3, align 8
  call void @llvm.lifetime.start.p0(i64 8, ptr %4) #9
  %13 = load ptr, ptr %3, align 8
  %14 = getelementptr inbounds nuw %struct.FunctionCallInfoBaseData, ptr %13, i32 0, i32 2
  %15 = load ptr, ptr %14, align 8
  store ptr %15, ptr %4, align 8
  call void @llvm.lifetime.start.p0(i64 8, ptr %5) #9
  call void @llvm.lifetime.start.p0(i64 1, ptr %6) #9
  store i8 0, ptr %6, align 1
  call void @llvm.lifetime.start.p0(i64 1, ptr %7) #9
  store i8 0, ptr %7, align 1
  call void @llvm.lifetime.start.p0(i64 8, ptr %8) #9
  call void @llvm.lifetime.start.p0(i64 8, ptr %9) #9
  %16 = load ptr, ptr %3, align 8
  %17 = getelementptr inbounds nuw %struct.FunctionCallInfoBaseData, ptr %16, i32 0, i32 6
  %18 = getelementptr inbounds [0 x %struct.NullableDatum], ptr %17, i64 0, i64 0
  %19 = getelementptr inbounds nuw %struct.NullableDatum, ptr %18, i32 0, i32 0
  %20 = load i64, ptr %19, align 8
  %21 = call ptr @DatumGetPointer(i64 noundef %20)
  %22 = call ptr @pg_detoast_datum_packed(ptr noundef %21)
  %23 = call ptr @convert_and_check_filename(ptr noundef %22)
  store ptr %23, ptr %5, align 8
  %24 = load ptr, ptr %3, align 8
  %25 = getelementptr inbounds nuw %struct.FunctionCallInfoBaseData, ptr %24, i32 0, i32 5
  %26 = load i16, ptr %25, align 2
  %27 = sext i16 %26 to i32
  %28 = icmp eq i32 %27, 3
  br i1 %28, label %29, label %60

29:                                               ; preds = %1
  %30 = load ptr, ptr %3, align 8
  %31 = getelementptr inbounds nuw %struct.FunctionCallInfoBaseData, ptr %30, i32 0, i32 6
  %32 = getelementptr inbounds [0 x %struct.NullableDatum], ptr %31, i64 0, i64 1
  %33 = getelementptr inbounds nuw %struct.NullableDatum, ptr %32, i32 0, i32 1
  %34 = load i8, ptr %33, align 8, !range !4, !noundef !5
  %35 = trunc i8 %34 to i1
  br i1 %35, label %44, label %36

36:                                               ; preds = %29
  %37 = load ptr, ptr %3, align 8
  %38 = getelementptr inbounds nuw %struct.FunctionCallInfoBaseData, ptr %37, i32 0, i32 6
  %39 = getelementptr inbounds [0 x %struct.NullableDatum], ptr %38, i64 0, i64 1
  %40 = getelementptr inbounds nuw %struct.NullableDatum, ptr %39, i32 0, i32 0
  %41 = load i64, ptr %40, align 8
  %42 = call zeroext i1 @DatumGetBool(i64 noundef %41)
  %43 = zext i1 %42 to i8
  store i8 %43, ptr %6, align 1
  br label %44

44:                                               ; preds = %36, %29
  %45 = load ptr, ptr %3, align 8
  %46 = getelementptr inbounds nuw %struct.FunctionCallInfoBaseData, ptr %45, i32 0, i32 6
  %47 = getelementptr inbounds [0 x %struct.NullableDatum], ptr %46, i64 0, i64 2
  %48 = getelementptr inbounds nuw %struct.NullableDatum, ptr %47, i32 0, i32 1
  %49 = load i8, ptr %48, align 8, !range !4, !noundef !5
  %50 = trunc i8 %49 to i1
  br i1 %50, label %59, label %51

51:                                               ; preds = %44
  %52 = load ptr, ptr %3, align 8
  %53 = getelementptr inbounds nuw %struct.FunctionCallInfoBaseData, ptr %52, i32 0, i32 6
  %54 = getelementptr inbounds [0 x %struct.NullableDatum], ptr %53, i64 0, i64 2
  %55 = getelementptr inbounds nuw %struct.NullableDatum, ptr %54, i32 0, i32 0
  %56 = load i64, ptr %55, align 8
  %57 = call zeroext i1 @DatumGetBool(i64 noundef %56)
  %58 = zext i1 %57 to i8
  store i8 %58, ptr %7, align 1
  br label %59

59:                                               ; preds = %51, %44
  br label %60

60:                                               ; preds = %59, %1
  %61 = load ptr, ptr %3, align 8
  call void @InitMaterializedSRF(ptr noundef %61, i32 noundef 1)
  %62 = load ptr, ptr %5, align 8
  %63 = call ptr @AllocateDir(ptr noundef %62)
  store ptr %63, ptr %8, align 8
  %64 = load ptr, ptr %8, align 8
  %65 = icmp ne ptr %64, null
  br i1 %65, label %75, label %66

66:                                               ; preds = %60
  %67 = load i8, ptr %6, align 1, !range !4, !noundef !5
  %68 = trunc i8 %67 to i1
  br i1 %68, label %69, label %74

69:                                               ; preds = %66
  %70 = call ptr @__errno_location() #11
  %71 = load i32, ptr %70, align 4
  %72 = icmp eq i32 %71, 2
  br i1 %72, label %73, label %74

73:                                               ; preds = %69
  store i64 0, ptr %2, align 8
  store i32 1, ptr %10, align 4
  br label %119

74:                                               ; preds = %69, %66
  br label %75

75:                                               ; preds = %74, %60
  br label %76

76:                                               ; preds = %115, %113, %75
  %77 = load ptr, ptr %8, align 8
  %78 = load ptr, ptr %5, align 8
  %79 = call ptr @ReadDir(ptr noundef %77, ptr noundef %78)
  store ptr %79, ptr %9, align 8
  %80 = icmp ne ptr %79, null
  br i1 %80, label %81, label %116

81:                                               ; preds = %76
  call void @llvm.lifetime.start.p0(i64 8, ptr %11) #9
  call void @llvm.lifetime.start.p0(i64 1, ptr %12) #9
  %82 = load i8, ptr %7, align 1, !range !4, !noundef !5
  %83 = trunc i8 %82 to i1
  br i1 %83, label %97, label %84

84:                                               ; preds = %81
  %85 = load ptr, ptr %9, align 8
  %86 = getelementptr inbounds nuw %struct.dirent, ptr %85, i32 0, i32 4
  %87 = getelementptr inbounds [256 x i8], ptr %86, i64 0, i64 0
  %88 = call i32 @strcmp(ptr noundef %87, ptr noundef @.str.8) #12
  %89 = icmp eq i32 %88, 0
  br i1 %89, label %96, label %90

90:                                               ; preds = %84
  %91 = load ptr, ptr %9, align 8
  %92 = getelementptr inbounds nuw %struct.dirent, ptr %91, i32 0, i32 4
  %93 = getelementptr inbounds [256 x i8], ptr %92, i64 0, i64 0
  %94 = call i32 @strcmp(ptr noundef %93, ptr noundef @.str.9) #12
  %95 = icmp eq i32 %94, 0
  br i1 %95, label %96, label %97

96:                                               ; preds = %90, %84
  store i32 2, ptr %10, align 4
  br label %113, !llvm.loop !6

97:                                               ; preds = %90, %81
  %98 = load ptr, ptr %9, align 8
  %99 = getelementptr inbounds nuw %struct.dirent, ptr %98, i32 0, i32 4
  %100 = getelementptr inbounds [256 x i8], ptr %99, i64 0, i64 0
  %101 = call ptr @cstring_to_text(ptr noundef %100)
  %102 = call i64 @PointerGetDatum(ptr noundef %101)
  %103 = getelementptr inbounds [1 x i64], ptr %11, i64 0, i64 0
  store i64 %102, ptr %103, align 8
  %104 = getelementptr inbounds [1 x i8], ptr %12, i64 0, i64 0
  store i8 0, ptr %104, align 1
  %105 = load ptr, ptr %4, align 8
  %106 = getelementptr inbounds nuw %struct.ReturnSetInfo, ptr %105, i32 0, i32 6
  %107 = load ptr, ptr %106, align 8
  %108 = load ptr, ptr %4, align 8
  %109 = getelementptr inbounds nuw %struct.ReturnSetInfo, ptr %108, i32 0, i32 7
  %110 = load ptr, ptr %109, align 8
  %111 = getelementptr inbounds [1 x i64], ptr %11, i64 0, i64 0
  %112 = getelementptr inbounds [1 x i8], ptr %12, i64 0, i64 0
  call void @tuplestore_putvalues(ptr noundef %107, ptr noundef %110, ptr noundef %111, ptr noundef %112)
  store i32 0, ptr %10, align 4
  br label %113

113:                                              ; preds = %97, %96
  call void @llvm.lifetime.end.p0(i64 1, ptr %12) #9
  call void @llvm.lifetime.end.p0(i64 8, ptr %11) #9
  %114 = load i32, ptr %10, align 4
  switch i32 %114, label %121 [
    i32 0, label %115
    i32 2, label %76
  ]

115:                                              ; preds = %113
  br label %76, !llvm.loop !6

116:                                              ; preds = %76
  %117 = load ptr, ptr %8, align 8
  %118 = call i32 @FreeDir(ptr noundef %117)
  store i64 0, ptr %2, align 8
  store i32 1, ptr %10, align 4
  br label %119

119:                                              ; preds = %116, %73
  call void @llvm.lifetime.end.p0(i64 8, ptr %9) #9
  call void @llvm.lifetime.end.p0(i64 8, ptr %8) #9
  call void @llvm.lifetime.end.p0(i64 1, ptr %7) #9
  call void @llvm.lifetime.end.p0(i64 1, ptr %6) #9
  call void @llvm.lifetime.end.p0(i64 8, ptr %5) #9
  call void @llvm.lifetime.end.p0(i64 8, ptr %4) #9
  %120 = load i64, ptr %2, align 8
  ret i64 %120

121:                                              ; preds = %113
  unreachable
}