; Function Attrs: nounwind uwtable
define dso_local noundef i64 @pg_ls_dir(ptr noundef %0) local_unnamed_addr #0 {
  %2 = alloca [1 x i64], align 8
  %3 = alloca [1 x i8], align 1
  %4 = getelementptr inbounds nuw i8, ptr %0, i64 16
  %5 = load ptr, ptr %4, align 8
  %6 = getelementptr inbounds nuw i8, ptr %0, i64 32
  %7 = load i64, ptr %6, align 8
  %8 = inttoptr i64 %7 to ptr
  %9 = tail call ptr @pg_detoast_datum_packed(ptr noundef %8) #9
  %10 = tail call fastcc ptr @convert_and_check_filename(ptr noundef %9)
  %11 = getelementptr inbounds nuw i8, ptr %0, i64 30
  %12 = load i16, ptr %11, align 2
  %13 = icmp eq i16 %12, 3
  br i1 %13, label %14, label %30

14:                                               ; preds = %1
  %15 = getelementptr inbounds nuw i8, ptr %0, i64 56
  %16 = load i8, ptr %15, align 8, !range !4, !noundef !5
  %17 = trunc nuw i8 %16 to i1
  br i1 %17, label %22, label %18

18:                                               ; preds = %14
  %19 = getelementptr inbounds nuw i8, ptr %0, i64 48
  %20 = load i64, ptr %19, align 8
  %21 = icmp ne i64 %20, 0
  br label %22

22:                                               ; preds = %18, %14
  %.1 = phi i1 [ false, %14 ], [ %21, %18 ]
  %23 = getelementptr inbounds nuw i8, ptr %0, i64 72
  %24 = load i8, ptr %23, align 8, !range !4, !noundef !5
  %25 = trunc nuw i8 %24 to i1
  br i1 %25, label %30, label %26

26:                                               ; preds = %22
  %27 = getelementptr inbounds nuw i8, ptr %0, i64 64
  %28 = load i64, ptr %27, align 8
  %29 = icmp ne i64 %28, 0
  br label %30

30:                                               ; preds = %22, %26, %1
  %.021 = phi i1 [ false, %22 ], [ %29, %26 ], [ false, %1 ]
  %.020 = phi i1 [ %.1, %22 ], [ %.1, %26 ], [ false, %1 ]
  tail call void @InitMaterializedSRF(ptr noundef nonnull %0, i32 noundef 1) #9
  %31 = tail call ptr @AllocateDir(ptr noundef %10) #9
  %.not = icmp eq ptr %31, null
  %brmerge.not = select i1 %.not, i1 %.020, i1 false
  br i1 %brmerge.not, label %32, label %36

32:                                               ; preds = %30
  %33 = tail call ptr @__errno_location() #11
  %34 = load i32, ptr %33, align 4
  %35 = icmp eq i32 %34, 2
  br i1 %35, label %65, label %36

36:                                               ; preds = %30, %32
  %37 = tail call ptr @ReadDir(ptr noundef %31, ptr noundef %10) #9
  %.not2227 = icmp eq ptr %37, null
  br i1 %.not2227, label %._crit_edge, label %.lr.ph

.lr.ph:                                           ; preds = %36
  %38 = getelementptr inbounds nuw i8, ptr %5, i64 40
  %39 = getelementptr inbounds nuw i8, ptr %5, i64 48
  br i1 %.021, label %.lr.ph.split.us, label %sub_0

.lr.ph.split.us:                                  ; preds = %.lr.ph, %.lr.ph.split.us
  %40 = phi ptr [ %46, %.lr.ph.split.us ], [ %37, %.lr.ph ]
  call void @llvm.lifetime.start.p0(i64 8, ptr nonnull %2) #9
  call void @llvm.lifetime.start.p0(i64 1, ptr nonnull %3) #9
  %41 = getelementptr inbounds nuw i8, ptr %40, i64 19
  %42 = call ptr @cstring_to_text(ptr noundef nonnull %41) #9
  %43 = ptrtoint ptr %42 to i64
  store i64 %43, ptr %2, align 8
  store i8 0, ptr %3, align 1
  %44 = load ptr, ptr %38, align 8
  %45 = load ptr, ptr %39, align 8
  call void @tuplestore_putvalues(ptr noundef %44, ptr noundef %45, ptr noundef nonnull %2, ptr noundef nonnull %3) #9
  call void @llvm.lifetime.end.p0(i64 1, ptr nonnull %3) #9
  call void @llvm.lifetime.end.p0(i64 8, ptr nonnull %2) #9
  %46 = call ptr @ReadDir(ptr noundef %31, ptr noundef %10) #9
  %.not22.us = icmp eq ptr %46, null
  br i1 %.not22.us, label %._crit_edge, label %.lr.ph.split.us

sub_0:                                            ; preds = %.lr.ph, %62
  %47 = phi ptr [ %63, %62 ], [ %37, %.lr.ph ]
  call void @llvm.lifetime.start.p0(i64 8, ptr nonnull %2) #9
  call void @llvm.lifetime.start.p0(i64 1, ptr nonnull %3) #9
  %48 = getelementptr inbounds nuw i8, ptr %47, i64 19
  %49 = load i8, ptr %48, align 1
  %.not28 = icmp eq i8 %49, 46
  br i1 %.not28, label %.tail, label %.tail23.thread

.tail:                                            ; preds = %sub_0
  %50 = getelementptr inbounds nuw i8, ptr %47, i64 20
  %51 = load i8, ptr %50, align 1
  %52 = icmp eq i8 %51, 0
  br i1 %52, label %62, label %sub_125, !llvm.loop !6

sub_125:                                          ; preds = %.tail
  %53 = getelementptr inbounds nuw i8, ptr %47, i64 20
  %54 = load i8, ptr %53, align 1
  %.not30 = icmp eq i8 %54, 46
  br i1 %.not30, label %.tail23, label %.tail23.thread

.tail23:                                          ; preds = %sub_125
  %55 = getelementptr inbounds nuw i8, ptr %47, i64 21
  %56 = load i8, ptr %55, align 1
  %57 = icmp eq i8 %56, 0
  br i1 %57, label %62, label %.tail23.thread, !llvm.loop !6

.tail23.thread:                                   ; preds = %sub_0, %sub_125, %.tail23
  %58 = call ptr @cstring_to_text(ptr noundef nonnull %48) #9
  %59 = ptrtoint ptr %58 to i64
  store i64 %59, ptr %2, align 8
  store i8 0, ptr %3, align 1
  %60 = load ptr, ptr %38, align 8
  %61 = load ptr, ptr %39, align 8
  call void @tuplestore_putvalues(ptr noundef %60, ptr noundef %61, ptr noundef nonnull %2, ptr noundef nonnull %3) #9
  br label %62

62:                                               ; preds = %.tail, %.tail23, %.tail23.thread
  call void @llvm.lifetime.end.p0(i64 1, ptr nonnull %3) #9
  call void @llvm.lifetime.end.p0(i64 8, ptr nonnull %2) #9
  %63 = call ptr @ReadDir(ptr noundef %31, ptr noundef %10) #9
  %.not22 = icmp eq ptr %63, null
  br i1 %.not22, label %._crit_edge, label %sub_0

._crit_edge:                                      ; preds = %62, %.lr.ph.split.us, %36
  %64 = call i32 @FreeDir(ptr noundef %31) #9
  br label %65

65:                                               ; preds = %32, %._crit_edge
  ret i64 0
}